; Function Attrs: mustprogress uwtable
define void @_ZN7rocksdb18BlockCreateContext6CreateEPSt10unique_ptrINS_11Block_kDataESt14default_deleteIS2_EEONS_13BlockContentsE(ptr noundef nonnull readonly align 8 captures(none) dereferenceable(48) %0, ptr noundef captures(none) %1, ptr noundef nonnull align 8 dereferenceable(32) %2) local_unnamed_addr #3 align 2 personality ptr @__gxx_personality_v0 {
  %4 = tail call noalias noundef nonnull dereferenceable(88) ptr @_Znwm(i64 noundef 88) #18
  %5 = load ptr, ptr %0, align 8, !tbaa !11
  %6 = getelementptr inbounds nuw i8, ptr %5, i64 204
  %7 = load i32, ptr %6, align 4, !tbaa !20
  %8 = zext i32 %7 to i64
  %9 = getelementptr inbounds nuw i8, ptr %0, i64 16
  %10 = load ptr, ptr %9, align 8, !tbaa !57
  invoke void @_ZN7rocksdb5BlockC2EONS_13BlockContentsEmPNS_10StatisticsE(ptr noundef nonnull align 8 dereferenceable(84) %4, ptr noundef nonnull align 8 dereferenceable(32) %2, i64 noundef %8, ptr noundef %10)
          to label %_ZN7rocksdb11Block_kDataCI2NS_5BlockEEONS_13BlockContentsEmPNS_10StatisticsE.exit unwind label %17

_ZN7rocksdb11Block_kDataCI2NS_5BlockEEONS_13BlockContentsEmPNS_10StatisticsE.exit: ; preds = %3
  %11 = load ptr, ptr %1, align 8, !tbaa !58
  store ptr %4, ptr %1, align 8, !tbaa !58
  %.not.i.i = icmp eq ptr %11, null
  br i1 %.not.i.i, label %_ZNSt10unique_ptrIN7rocksdb11Block_kDataESt14default_deleteIS1_EE5resetEPS1_.exit, label %_ZNKSt14default_deleteIN7rocksdb11Block_kDataEEclEPS1_.exit.i.i

_ZNKSt14default_deleteIN7rocksdb11Block_kDataEEclEPS1_.exit.i.i: ; preds = %_ZN7rocksdb11Block_kDataCI2NS_5BlockEEONS_13BlockContentsEmPNS_10StatisticsE.exit
  tail call void @_ZN7rocksdb5BlockD2Ev(ptr noundef nonnull align 8 dereferenceable(84) %11) #19
  tail call void @_ZdlPvm(ptr noundef nonnull %11, i64 noundef 88) #17
  %.pre = load ptr, ptr %1, align 8, !tbaa !58
  br label %_ZNSt10unique_ptrIN7rocksdb11Block_kDataESt14default_deleteIS1_EE5resetEPS1_.exit

_ZNSt10unique_ptrIN7rocksdb11Block_kDataESt14default_deleteIS1_EE5resetEPS1_.exit: ; preds = %_ZN7rocksdb11Block_kDataCI2NS_5BlockEEONS_13BlockContentsEmPNS_10StatisticsE.exit, %_ZNKSt14default_deleteIN7rocksdb11Block_kDataEEclEPS1_.exit.i.i
  %12 = phi ptr [ %4, %_ZN7rocksdb11Block_kDataCI2NS_5BlockEEONS_13BlockContentsEmPNS_10StatisticsE.exit ], [ %.pre, %_ZNKSt14default_deleteIN7rocksdb11Block_kDataEEclEPS1_.exit.i.i ]
  %13 = getelementptr inbounds nuw i8, ptr %0, i64 45
  %14 = load i8, ptr %13, align 1, !tbaa !60
  %15 = getelementptr inbounds nuw i8, ptr %0, i64 24
  %16 = load ptr, ptr %15, align 8, !tbaa !61
  tail call void @_ZN7rocksdb5Block33InitializeDataBlockProtectionInfoEhPKNS_10ComparatorE(ptr noundef nonnull align 8 dereferenceable(84) %12, i8 noundef zeroext %14, ptr noundef %16)
  ret void

17:                                               ; preds = %3
  %18 = landingpad { ptr, i32 }
          cleanup
  tail call void @_ZdlPvm(ptr noundef nonnull %4, i64 noundef 88) #17
  resume { ptr, i32 } %18
}